target datalayout = "e-m:e-p270:32:32-p271:32:32-p272:64:64-i64:64-i128:128-f80:128-n8:16:32:64-S128"
target triple = "x86_64-pc-linux-gnu"

%struct.AVFilterContext = type { ptr, ptr, ptr, ptr, ptr, i32, ptr, ptr, i32, ptr, ptr, i32, i32, ptr, ptr, ptr, ptr, i32, ptr, i32, i32 }
%struct.CrystalizerContext = type { ptr, float, i32, ptr, [2 x [2 x ptr]] }
%struct.ThreadData = type { ptr, ptr, ptr, i32, i32, float }
%struct.AVFilterLink = type { ptr, ptr, ptr, ptr, i32, i32, i32, i32, %struct.AVRational, i32, i32, i32, %struct.AVChannelLayout, %struct.AVRational, ptr, i32, %struct.AVFilterFormatsConfig, %struct.AVFilterFormatsConfig }
%struct.AVChannelLayout = type { i32, i32, %union.anon.1, ptr }
%union.anon.1 = type { i64 }
%struct.AVRational = type { i32, i32 }
%struct.AVFilterFormatsConfig = type { ptr, ptr, ptr, ptr, ptr }
%struct.AVFrame = type { [8 x ptr], [8 x i32], ptr, i32, i32, i32, i32, i32, %struct.AVRational, i64, i64, %struct.AVRational, i32, ptr, i32, i32, [8 x ptr], ptr, i32, ptr, i32, i32, i32, i32, i32, i32, i32, i64, ptr, i32, ptr, ptr, i64, i64, i64, i64, ptr, %struct.AVChannelLayout, i64 }

; Function Attrs: nounwind uwtable
define internal i32 @filter_frame(ptr noundef %0, ptr noundef %1) #2 {
  %3 = alloca i32, align 4
  %4 = alloca ptr, align 8
  %5 = alloca ptr, align 8
  %6 = alloca ptr, align 8
  %7 = alloca ptr, align 8
  %8 = alloca ptr, align 8
  %9 = alloca ptr, align 8
  %10 = alloca %struct.ThreadData, align 8
  %11 = alloca i32, align 4
  store ptr %0, ptr %4, align 8, !tbaa !24
  store ptr %1, ptr %5, align 8, !tbaa !26
  call void @llvm.lifetime.start.p0(i64 8, ptr %6) #7
  %12 = load ptr, ptr %4, align 8, !tbaa !24
  %13 = getelementptr inbounds nuw %struct.AVFilterLink, ptr %12, i32 0, i32 2
  %14 = load ptr, ptr %13, align 8, !tbaa !28
  store ptr %14, ptr %6, align 8, !tbaa !4
  call void @llvm.lifetime.start.p0(i64 8, ptr %7) #7
  %15 = load ptr, ptr %6, align 8, !tbaa !4
  %16 = getelementptr inbounds nuw %struct.AVFilterContext, ptr %15, i32 0, i32 7
  %17 = load ptr, ptr %16, align 8, !tbaa !36
  %18 = getelementptr inbounds ptr, ptr %17, i64 0
  %19 = load ptr, ptr %18, align 8, !tbaa !24
  store ptr %19, ptr %7, align 8, !tbaa !24
  call void @llvm.lifetime.start.p0(i64 8, ptr %8) #7
  %20 = load ptr, ptr %6, align 8, !tbaa !4
  %21 = getelementptr inbounds nuw %struct.AVFilterContext, ptr %20, i32 0, i32 9
  %22 = load ptr, ptr %21, align 8, !tbaa !9
  store ptr %22, ptr %8, align 8, !tbaa !22
  call void @llvm.lifetime.start.p0(i64 8, ptr %9) #7
  call void @llvm.lifetime.start.p0(i64 40, ptr %10) #7
  %23 = load ptr, ptr %8, align 8, !tbaa !22
  %24 = getelementptr inbounds nuw %struct.CrystalizerContext, ptr %23, i32 0, i32 3
  %25 = load ptr, ptr %24, align 8, !tbaa !37
  %26 = icmp ne ptr %25, null
  br i1 %26, label %38, label %27

27:                                               ; preds = %2
  %28 = load ptr, ptr %4, align 8, !tbaa !24
  %29 = call ptr @ff_get_audio_buffer(ptr noundef %28, i32 noundef 1)
  %30 = load ptr, ptr %8, align 8, !tbaa !22
  %31 = getelementptr inbounds nuw %struct.CrystalizerContext, ptr %30, i32 0, i32 3
  store ptr %29, ptr %31, align 8, !tbaa !37
  %32 = load ptr, ptr %8, align 8, !tbaa !22
  %33 = getelementptr inbounds nuw %struct.CrystalizerContext, ptr %32, i32 0, i32 3
  %34 = load ptr, ptr %33, align 8, !tbaa !37
  %35 = icmp ne ptr %34, null
  br i1 %35, label %37, label %36

36:                                               ; preds = %27
  call void @av_frame_free(ptr noundef %5)
  store i32 -12, ptr %3, align 4
  store i32 1, ptr %11, align 4
  br label %134

37:                                               ; preds = %27
  br label %38

38:                                               ; preds = %37, %2
  %39 = load ptr, ptr %5, align 8, !tbaa !26
  %40 = call i32 @av_frame_is_writable(ptr noundef %39)
  %41 = icmp ne i32 %40, 0
  br i1 %41, label %42, label %44

42:                                               ; preds = %38
  %43 = load ptr, ptr %5, align 8, !tbaa !26
  store ptr %43, ptr %9, align 8, !tbaa !26
  br label %57

44:                                               ; preds = %38
  %45 = load ptr, ptr %7, align 8, !tbaa !24
  %46 = load ptr, ptr %5, align 8, !tbaa !26
  %47 = getelementptr inbounds nuw %struct.AVFrame, ptr %46, i32 0, i32 5
  %48 = load i32, ptr %47, align 8, !tbaa !40
  %49 = call ptr @ff_get_audio_buffer(ptr noundef %45, i32 noundef %48)
  store ptr %49, ptr %9, align 8, !tbaa !26
  %50 = load ptr, ptr %9, align 8, !tbaa !26
  %51 = icmp ne ptr %50, null
  br i1 %51, label %53, label %52

52:                                               ; preds = %44
  call void @av_frame_free(ptr noundef %5)
  store i32 -12, ptr %3, align 4
  store i32 1, ptr %11, align 4
  br label %134

53:                                               ; preds = %44
  %54 = load ptr, ptr %9, align 8, !tbaa !26
  %55 = load ptr, ptr %5, align 8, !tbaa !26
  %56 = call i32 @av_frame_copy_props(ptr noundef %54, ptr noundef %55)
  br label %57

57:                                               ; preds = %53, %42
  %58 = load ptr, ptr %9, align 8, !tbaa !26
  %59 = getelementptr inbounds nuw %struct.AVFrame, ptr %58, i32 0, i32 2
  %60 = load ptr, ptr %59, align 8, !tbaa !46
  %61 = getelementptr inbounds nuw %struct.ThreadData, ptr %10, i32 0, i32 0
  store ptr %60, ptr %61, align 8, !tbaa !47
  %62 = load ptr, ptr %5, align 8, !tbaa !26
  %63 = getelementptr inbounds nuw %struct.AVFrame, ptr %62, i32 0, i32 2
  %64 = load ptr, ptr %63, align 8, !tbaa !46
  %65 = getelementptr inbounds nuw %struct.ThreadData, ptr %10, i32 0, i32 2
  store ptr %64, ptr %65, align 8, !tbaa !49
  %66 = load ptr, ptr %8, align 8, !tbaa !22
  %67 = getelementptr inbounds nuw %struct.CrystalizerContext, ptr %66, i32 0, i32 3
  %68 = load ptr, ptr %67, align 8, !tbaa !37
  %69 = getelementptr inbounds nuw %struct.AVFrame, ptr %68, i32 0, i32 2
  %70 = load ptr, ptr %69, align 8, !tbaa !46
  %71 = getelementptr inbounds nuw %struct.ThreadData, ptr %10, i32 0, i32 1
  store ptr %70, ptr %71, align 8, !tbaa !50
  %72 = load ptr, ptr %5, align 8, !tbaa !26
  %73 = getelementptr inbounds nuw %struct.AVFrame, ptr %72, i32 0, i32 5
  %74 = load i32, ptr %73, align 8, !tbaa !40
  %75 = getelementptr inbounds nuw %struct.ThreadData, ptr %10, i32 0, i32 3
  store i32 %74, ptr %75, align 8, !tbaa !51
  %76 = load ptr, ptr %5, align 8, !tbaa !26
  %77 = getelementptr inbounds nuw %struct.AVFrame, ptr %76, i32 0, i32 37
  %78 = getelementptr inbounds nuw %struct.AVChannelLayout, ptr %77, i32 0, i32 1
  %79 = load i32, ptr %78, align 4, !tbaa !52
  %80 = getelementptr inbounds nuw %struct.ThreadData, ptr %10, i32 0, i32 4
  store i32 %79, ptr %80, align 4, !tbaa !53
  %81 = load ptr, ptr %6, align 8, !tbaa !4
  %82 = getelementptr inbounds nuw %struct.AVFilterContext, ptr %81, i32 0, i32 17
  %83 = load i32, ptr %82, align 8, !tbaa !54
  %84 = icmp ne i32 %83, 0
  br i1 %84, label %85, label %86

85:                                               ; preds = %57
  br label %90

86:                                               ; preds = %57
  %87 = load ptr, ptr %8, align 8, !tbaa !22
  %88 = getelementptr inbounds nuw %struct.CrystalizerContext, ptr %87, i32 0, i32 1
  %89 = load float, ptr %88, align 8, !tbaa !55
  br label %90

90:                                               ; preds = %86, %85
  %91 = phi nsz float [ 0.000000e+00, %85 ], [ %89, %86 ]
  %92 = getelementptr inbounds nuw %struct.ThreadData, ptr %10, i32 0, i32 5
  store float %91, ptr %92, align 8, !tbaa !56
  %93 = load ptr, ptr %6, align 8, !tbaa !4
  %94 = load ptr, ptr %8, align 8, !tbaa !22
  %95 = getelementptr inbounds nuw %struct.CrystalizerContext, ptr %94, i32 0, i32 4
  %96 = getelementptr inbounds nuw %struct.ThreadData, ptr %10, i32 0, i32 5
  %97 = load float, ptr %96, align 8, !tbaa !56
  %98 = fcmp nsz oge float %97, 0.000000e+00
  %99 = zext i1 %98 to i32
  %100 = sext i32 %99 to i64
  %101 = getelementptr inbounds [2 x [2 x ptr]], ptr %95, i64 0, i64 %100
  %102 = load ptr, ptr %8, align 8, !tbaa !22
  %103 = getelementptr inbounds nuw %struct.CrystalizerContext, ptr %102, i32 0, i32 2
  %104 = load i32, ptr %103, align 4, !tbaa !57
  %105 = sext i32 %104 to i64
  %106 = getelementptr inbounds [2 x ptr], ptr %101, i64 0, i64 %105
  %107 = load ptr, ptr %106, align 8, !tbaa !58
  %108 = load ptr, ptr %4, align 8, !tbaa !24
  %109 = getelementptr inbounds nuw %struct.AVFilterLink, ptr %108, i32 0, i32 12
  %110 = getelementptr inbounds nuw %struct.AVChannelLayout, ptr %109, i32 0, i32 1
  %111 = load i32, ptr %110, align 4, !tbaa !59
  %112 = load ptr, ptr %6, align 8, !tbaa !4
  %113 = call i32 @ff_filter_get_nb_threads(ptr noundef %112) #8
  %114 = icmp sgt i32 %111, %113
  br i1 %114, label %115, label %118

115:                                              ; preds = %90
  %116 = load ptr, ptr %6, align 8, !tbaa !4
  %117 = call i32 @ff_filter_get_nb_threads(ptr noundef %116) #8
  br label %123

118:                                              ; preds = %90
  %119 = load ptr, ptr %4, align 8, !tbaa !24
  %120 = getelementptr inbounds nuw %struct.AVFilterLink, ptr %119, i32 0, i32 12
  %121 = getelementptr inbounds nuw %struct.AVChannelLayout, ptr %120, i32 0, i32 1
  %122 = load i32, ptr %121, align 4, !tbaa !59
  br label %123

123:                                              ; preds = %118, %115
  %124 = phi i32 [ %117, %115 ], [ %122, %118 ]
  %125 = call i32 @ff_filter_execute(ptr noundef %93, ptr noundef %107, ptr noundef %10, ptr noundef null, i32 noundef %124)
  %126 = load ptr, ptr %9, align 8, !tbaa !26
  %127 = load ptr, ptr %5, align 8, !tbaa !26
  %128 = icmp ne ptr %126, %127
  br i1 %128, label %129, label %130

129:                                              ; preds = %123
  call void @av_frame_free(ptr noundef %5)
  br label %130

130:                                              ; preds = %129, %123
  %131 = load ptr, ptr %7, align 8, !tbaa !24
  %132 = load ptr, ptr %9, align 8, !tbaa !26
  %133 = call i32 @ff_filter_frame(ptr noundef %131, ptr noundef %132)
  store i32 %133, ptr %3, align 4
  store i32 1, ptr %11, align 4
  br label %134

134:                                              ; preds = %130, %52, %36
  call void @llvm.lifetime.end.p0(i64 40, ptr %10) #7
  call void @llvm.lifetime.end.p0(i64 8, ptr %9) #7
  call void @llvm.lifetime.end.p0(i64 8, ptr %8) #7
  call void @llvm.lifetime.end.p0(i64 8, ptr %7) #7
  call void @llvm.lifetime.end.p0(i64 8, ptr %6) #7
  %135 = load i32, ptr %3, align 4
  ret i32 %135
}