; Function Attrs: nounwind uwtable
define internal i32 @filter_frame(ptr noundef %0, ptr noundef %1) #2 {
  %3 = alloca ptr, align 8
  %4 = alloca %struct.ThreadData, align 8
  store ptr %1, ptr %3, align 8, !tbaa !20
  %5 = getelementptr inbounds nuw i8, ptr %0, i64 16
  %6 = load ptr, ptr %5, align 8, !tbaa !22
  %7 = getelementptr inbounds nuw i8, ptr %6, i64 56
  %8 = load ptr, ptr %7, align 8, !tbaa !31
  %9 = load ptr, ptr %8, align 8, !tbaa !32
  %10 = getelementptr inbounds nuw i8, ptr %6, i64 72
  %11 = load ptr, ptr %10, align 8, !tbaa !4
  call void @llvm.lifetime.start.p0(i64 40, ptr nonnull %4) #9
  %12 = getelementptr inbounds nuw i8, ptr %11, i64 16
  %13 = load ptr, ptr %12, align 8, !tbaa !34
  %.not = icmp eq ptr %13, null
  br i1 %.not, label %14, label %17

14:                                               ; preds = %2
  %15 = tail call ptr @ff_get_audio_buffer(ptr noundef nonnull %0, i32 noundef 1) #9
  store ptr %15, ptr %12, align 8, !tbaa !34
  %.not28 = icmp eq ptr %15, null
  br i1 %.not28, label %16, label %17

16:                                               ; preds = %14
  call void @av_frame_free(ptr noundef nonnull %3) #9
  br label %66

17:                                               ; preds = %14, %2
  %18 = tail call i32 @av_frame_is_writable(ptr noundef %1) #9
  %.not29 = icmp eq i32 %18, 0
  br i1 %.not29, label %19, label %26

19:                                               ; preds = %17
  %20 = getelementptr inbounds nuw i8, ptr %1, i64 112
  %21 = load i32, ptr %20, align 8, !tbaa !37
  %22 = tail call ptr @ff_get_audio_buffer(ptr noundef %9, i32 noundef %21) #9
  %.not30 = icmp eq ptr %22, null
  br i1 %.not30, label %23, label %24

23:                                               ; preds = %19
  call void @av_frame_free(ptr noundef nonnull %3) #9
  br label %66

24:                                               ; preds = %19
  %25 = tail call i32 @av_frame_copy_props(ptr noundef nonnull %22, ptr noundef nonnull %1) #9
  br label %26

26:                                               ; preds = %17, %24
  %.0 = phi ptr [ %22, %24 ], [ %1, %17 ]
  %27 = getelementptr inbounds nuw i8, ptr %.0, i64 96
  %28 = load ptr, ptr %27, align 8, !tbaa !43
  store ptr %28, ptr %4, align 8, !tbaa !44
  %29 = getelementptr inbounds nuw i8, ptr %1, i64 96
  %30 = load ptr, ptr %29, align 8, !tbaa !43
  %31 = getelementptr inbounds nuw i8, ptr %4, i64 16
  store ptr %30, ptr %31, align 8, !tbaa !46
  %32 = load ptr, ptr %12, align 8, !tbaa !34
  %33 = getelementptr inbounds nuw i8, ptr %32, i64 96
  %34 = load ptr, ptr %33, align 8, !tbaa !43
  %35 = getelementptr inbounds nuw i8, ptr %4, i64 8
  store ptr %34, ptr %35, align 8, !tbaa !47
  %36 = getelementptr inbounds nuw i8, ptr %1, i64 112
  %37 = load i32, ptr %36, align 8, !tbaa !37
  %38 = getelementptr inbounds nuw i8, ptr %4, i64 24
  store i32 %37, ptr %38, align 8, !tbaa !48
  %39 = getelementptr inbounds nuw i8, ptr %1, i64 388
  %40 = load i32, ptr %39, align 4, !tbaa !49
  %41 = getelementptr inbounds nuw i8, ptr %4, i64 28
  store i32 %40, ptr %41, align 4, !tbaa !50
  %42 = getelementptr inbounds nuw i8, ptr %6, i64 128
  %43 = load i32, ptr %42, align 8, !tbaa !51
  %.not31 = icmp eq i32 %43, 0
  br i1 %.not31, label %44, label %47

44:                                               ; preds = %26
  %45 = getelementptr inbounds nuw i8, ptr %11, i64 8
  %46 = load float, ptr %45, align 8, !tbaa !52
  br label %47

47:                                               ; preds = %26, %44
  %48 = phi nsz float [ %46, %44 ], [ 0.000000e+00, %26 ]
  %49 = getelementptr inbounds nuw i8, ptr %4, i64 32
  store float %48, ptr %49, align 8, !tbaa !53
  %50 = getelementptr inbounds nuw i8, ptr %11, i64 24
  %51 = fcmp nsz oge float %48, 0.000000e+00
  %52 = zext i1 %51 to i64
  %53 = getelementptr inbounds nuw i8, ptr %11, i64 12
  %54 = load i32, ptr %53, align 4, !tbaa !54
  %55 = sext i32 %54 to i64
  %56 = getelementptr inbounds [2 x [2 x ptr]], ptr %50, i64 0, i64 %52, i64 %55
  %57 = load ptr, ptr %56, align 8, !tbaa !55
  %58 = getelementptr inbounds nuw i8, ptr %0, i64 76
  %59 = load i32, ptr %58, align 4, !tbaa !56
  %60 = tail call i32 @ff_filter_get_nb_threads(ptr noundef nonnull %6) #10
  %. = tail call i32 @llvm.smin.i32(i32 %59, i32 %60)
  %61 = call i32 @ff_filter_execute(ptr noundef nonnull %6, ptr noundef %57, ptr noundef nonnull %4, ptr noundef null, i32 noundef %.) #9
  %62 = load ptr, ptr %3, align 8, !tbaa !20
  %.not32 = icmp eq ptr %.0, %62
  br i1 %.not32, label %64, label %63

63:                                               ; preds = %47
  call void @av_frame_free(ptr noundef nonnull %3) #9
  br label %64

64:                                               ; preds = %63, %47
  %65 = call i32 @ff_filter_frame(ptr noundef %9, ptr noundef nonnull %.0) #9
  br label %66

66:                                               ; preds = %64, %23, %16
  %.024 = phi i32 [ %65, %64 ], [ -12, %23 ], [ -12, %16 ]
  call void @llvm.lifetime.end.p0(i64 40, ptr nonnull %4) #9
  ret i32 %.024
}